target datalayout = "e-m:e-p270:32:32-p271:32:32-p272:64:64-i64:64-i128:128-f80:128-n8:16:32:64-S128"
target triple = "x86_64-pc-linux-gnu"

@.str.9 = private unnamed_addr constant [7 x i8] c"ustar\00\00", align 1
@.str.10 = private unnamed_addr constant [3 x i8] c"00\00", align 1
@.str.11 = private unnamed_addr constant [9 x i8] c"ustar  \00\00", align 1
@.str.12 = private unnamed_addr constant [9 x i8] c"ustar00\00\00", align 1

; Function Attrs: nounwind uwtable
define dso_local zeroext i1 @isValidTarHeader(ptr noundef %0) #0 {
  %2 = alloca i1, align 1
  %3 = alloca ptr, align 8
  %4 = alloca i32, align 4
  %5 = alloca i32, align 4
  %6 = alloca i32, align 4
  store ptr %0, ptr %3, align 8
  call void @llvm.lifetime.start.p0(i64 4, ptr %4) #12
  call void @llvm.lifetime.start.p0(i64 4, ptr %5) #12
  %7 = load ptr, ptr %3, align 8
  %8 = call i32 @tarChecksum(ptr noundef %7)
  store i32 %8, ptr %5, align 4
  %9 = load ptr, ptr %3, align 8
  %10 = getelementptr inbounds i8, ptr %9, i64 148
  %11 = call i64 @read_tar_number(ptr noundef %10, i32 noundef 8)
  %12 = trunc i64 %11 to i32
  store i32 %12, ptr %4, align 4
  %13 = load i32, ptr %4, align 4
  %14 = load i32, ptr %5, align 4
  %15 = icmp ne i32 %13, %14
  br i1 %15, label %16, label %17

16:                                               ; preds = %1
  store i1 false, ptr %2, align 1
  store i32 1, ptr %6, align 4
  br label %41

17:                                               ; preds = %1
  %18 = load ptr, ptr %3, align 8
  %19 = getelementptr inbounds i8, ptr %18, i64 257
  %20 = call i32 @memcmp(ptr noundef %19, ptr noundef @.str.9, i64 noundef 6) #13
  %21 = icmp eq i32 %20, 0
  br i1 %21, label %22, label %28

22:                                               ; preds = %17
  %23 = load ptr, ptr %3, align 8
  %24 = getelementptr inbounds i8, ptr %23, i64 263
  %25 = call i32 @memcmp(ptr noundef %24, ptr noundef @.str.10, i64 noundef 2) #13
  %26 = icmp eq i32 %25, 0
  br i1 %26, label %27, label %28

27:                                               ; preds = %22
  store i1 true, ptr %2, align 1
  store i32 1, ptr %6, align 4
  br label %41

28:                                               ; preds = %22, %17
  %29 = load ptr, ptr %3, align 8
  %30 = getelementptr inbounds i8, ptr %29, i64 257
  %31 = call i32 @memcmp(ptr noundef %30, ptr noundef @.str.11, i64 noundef 8) #13
  %32 = icmp eq i32 %31, 0
  br i1 %32, label %33, label %34

33:                                               ; preds = %28
  store i1 true, ptr %2, align 1
  store i32 1, ptr %6, align 4
  br label %41

34:                                               ; preds = %28
  %35 = load ptr, ptr %3, align 8
  %36 = getelementptr inbounds i8, ptr %35, i64 257
  %37 = call i32 @memcmp(ptr noundef %36, ptr noundef @.str.12, i64 noundef 8) #13
  %38 = icmp eq i32 %37, 0
  br i1 %38, label %39, label %40

39:                                               ; preds = %34
  store i1 true, ptr %2, align 1
  store i32 1, ptr %6, align 4
  br label %41

40:                                               ; preds = %34
  store i1 false, ptr %2, align 1
  store i32 1, ptr %6, align 4
  br label %41

41:                                               ; preds = %40, %39, %33, %27, %16
  call void @llvm.lifetime.end.p0(i64 4, ptr %5) #12
  call void @llvm.lifetime.end.p0(i64 4, ptr %4) #12
  %42 = load i1, ptr %2, align 1
  ret i1 %42
}