; Function Attrs: nounwind uwtable
define dso_local zeroext i1 @isValidTarHeader(ptr noundef %0) local_unnamed_addr #0 {
  %2 = tail call i32 @tarChecksum(ptr noundef %0) #17
  %3 = getelementptr inbounds nuw i8, ptr %0, i64 148
  %4 = tail call i64 @read_tar_number(ptr noundef nonnull %3, i32 noundef 8) #17
  %5 = trunc i64 %4 to i32
  %.not = icmp eq i32 %2, %5
  br i1 %.not, label %6, label %16

6:                                                ; preds = %1
  %7 = getelementptr inbounds nuw i8, ptr %0, i64 257
  %bcmp = tail call i32 @bcmp(ptr noundef nonnull dereferenceable(6) %7, ptr noundef nonnull dereferenceable(6) @.str.9, i64 6)
  %8 = icmp eq i32 %bcmp, 0
  br i1 %8, label %9, label %12

9:                                                ; preds = %6
  %10 = getelementptr inbounds nuw i8, ptr %0, i64 263
  %bcmp8 = tail call i32 @bcmp(ptr noundef nonnull dereferenceable(2) %10, ptr noundef nonnull dereferenceable(2) @.str.10, i64 2)
  %11 = icmp eq i32 %bcmp8, 0
  br i1 %11, label %16, label %12

12:                                               ; preds = %9, %6
  %bcmp9 = tail call i32 @bcmp(ptr noundef nonnull dereferenceable(8) %7, ptr noundef nonnull dereferenceable(8) @.str.11, i64 8)
  %13 = icmp eq i32 %bcmp9, 0
  br i1 %13, label %16, label %14

14:                                               ; preds = %12
  %bcmp10 = tail call i32 @bcmp(ptr noundef nonnull dereferenceable(8) %7, ptr noundef nonnull dereferenceable(8) @.str.12, i64 8)
  %15 = icmp eq i32 %bcmp10, 0
  br label %16

16:                                               ; preds = %14, %12, %9, %1
  %.0 = phi i1 [ false, %1 ], [ true, %9 ], [ true, %12 ], [ %15, %14 ]
  ret i1 %.0
}